target datalayout = "e-m:e-p270:32:32-p271:32:32-p272:64:64-i64:64-i128:128-f80:128-n8:16:32:64-S128"
target triple = "x86_64-pc-linux-gnu"

%struct._asn1_ctx_t = type { i32, i32, i8, ptr, ptr, ptr, ptr, ptr, %struct.anon, %struct.anon.2, %struct.anon.3, ptr }
%struct.anon = type { i32, i8, i8, i8, ptr, ptr, i32, i32, ptr, ptr, ptr, %union.anon }
%union.anon = type { %struct.anon.0 }
%struct.anon.0 = type { ptr }
%struct.anon.2 = type { ptr, ptr, ptr }
%struct.anon.3 = type { i32, i8, ptr, i32, i32, ptr, ptr, ptr, %union.anon.4 }
%union.anon.4 = type { %struct.anon.5 }
%struct.anon.5 = type { ptr }

@hf_f1ap_transportLayerAddressIPv4 = internal global i32 0, align 4
@hf_f1ap_transportLayerAddressIPv6 = internal global i32 0, align 4
@ett_f1ap_TransportLayerAddress = internal global i32 0, align 4

; Function Attrs: null_pointer_is_valid sspstrong uwtable
define internal i32 @dissect_f1ap_TransportLayerAddress(ptr noundef %0, i32 noundef %1, ptr noundef %2, ptr noundef %3, i32 noundef %4) #0 {
  %6 = alloca ptr, align 8
  %7 = alloca i32, align 4
  %8 = alloca ptr, align 8
  %9 = alloca ptr, align 8
  %10 = alloca i32, align 4
  %11 = alloca ptr, align 8
  %12 = alloca ptr, align 8
  %13 = alloca i32, align 4
  store ptr %0, ptr %6, align 8
  store i32 %1, ptr %7, align 4
  store ptr %2, ptr %8, align 8
  store ptr %3, ptr %9, align 8
  store i32 %4, ptr %10, align 4
  call void @llvm.lifetime.start.p0(i64 8, ptr %11) #5
  store ptr null, ptr %11, align 8
  %14 = load ptr, ptr %6, align 8
  %15 = load i32, ptr %7, align 4
  %16 = load ptr, ptr %8, align 8
  %17 = load ptr, ptr %9, align 8
  %18 = load i32, ptr %10, align 4
  %19 = call i32 @dissect_per_bit_string(ptr noundef %14, i32 noundef %15, ptr noundef %16, ptr noundef %17, i32 noundef %18, i32 noundef 1, i32 noundef 160, i1 noundef zeroext true, ptr noundef null, i32 noundef 0, ptr noundef %11, ptr noundef null)
  store i32 %19, ptr %7, align 4
  %20 = load ptr, ptr %11, align 8
  %21 = icmp ne ptr %20, null
  br i1 %21, label %22, label %60

22:                                               ; preds = %5
  call void @llvm.lifetime.start.p0(i64 8, ptr %12) #5
  call void @llvm.lifetime.start.p0(i64 4, ptr %13) #5
  %23 = load ptr, ptr %11, align 8
  %24 = call i32 @tvb_reported_length(ptr noundef %23)
  store i32 %24, ptr %13, align 4
  %25 = load ptr, ptr %8, align 8
  %26 = getelementptr inbounds nuw %struct._asn1_ctx_t, ptr %25, i32 0, i32 4
  %27 = load ptr, ptr %26, align 8
  %28 = load i32, ptr @ett_f1ap_TransportLayerAddress, align 4
  %29 = call ptr @proto_item_add_subtree(ptr noundef %27, i32 noundef %28)
  store ptr %29, ptr %12, align 8
  %30 = load i32, ptr %13, align 4
  %31 = icmp eq i32 %30, 4
  br i1 %31, label %32, label %37

32:                                               ; preds = %22
  %33 = load ptr, ptr %12, align 8
  %34 = load i32, ptr @hf_f1ap_transportLayerAddressIPv4, align 4
  %35 = load ptr, ptr %11, align 8
  %36 = call ptr @proto_tree_add_item(ptr noundef %33, i32 noundef %34, ptr noundef %35, i32 noundef 0, i32 noundef 4, i32 noundef 0)
  br label %59

37:                                               ; preds = %22
  %38 = load i32, ptr %13, align 4
  %39 = icmp eq i32 %38, 16
  br i1 %39, label %40, label %45

40:                                               ; preds = %37
  %41 = load ptr, ptr %12, align 8
  %42 = load i32, ptr @hf_f1ap_transportLayerAddressIPv6, align 4
  %43 = load ptr, ptr %11, align 8
  %44 = call ptr @proto_tree_add_item(ptr noundef %41, i32 noundef %42, ptr noundef %43, i32 noundef 0, i32 noundef 16, i32 noundef 0)
  br label %58

45:                                               ; preds = %37
  %46 = load i32, ptr %13, align 4
  %47 = icmp eq i32 %46, 20
  br i1 %47, label %48, label %57

48:                                               ; preds = %45
  %49 = load ptr, ptr %12, align 8
  %50 = load i32, ptr @hf_f1ap_transportLayerAddressIPv4, align 4
  %51 = load ptr, ptr %11, align 8
  %52 = call ptr @proto_tree_add_item(ptr noundef %49, i32 noundef %50, ptr noundef %51, i32 noundef 0, i32 noundef 4, i32 noundef 0)
  %53 = load ptr, ptr %12, align 8
  %54 = load i32, ptr @hf_f1ap_transportLayerAddressIPv6, align 4
  %55 = load ptr, ptr %11, align 8
  %56 = call ptr @proto_tree_add_item(ptr noundef %53, i32 noundef %54, ptr noundef %55, i32 noundef 4, i32 noundef 16, i32 noundef 0)
  br label %57

57:                                               ; preds = %48, %45
  br label %58

58:                                               ; preds = %57, %40
  br label %59

59:                                               ; preds = %58, %32
  call void @llvm.lifetime.end.p0(i64 4, ptr %13) #5
  call void @llvm.lifetime.end.p0(i64 8, ptr %12) #5
  br label %60

60:                                               ; preds = %59, %5
  %61 = load i32, ptr %7, align 4
  call void @llvm.lifetime.end.p0(i64 8, ptr %11) #5
  ret i32 %61
}